target datalayout = "e-m:e-p270:32:32-p271:32:32-p272:64:64-i64:64-i128:128-f80:128-n8:16:32:64-S128"
target triple = "x86_64-pc-linux-gnu"

%struct.pg_tm = type { i32, i32, i32, i32, i32, i32, i32, i32, i32, i64, ptr }
%struct.FunctionCallInfoBaseData = type { ptr, ptr, ptr, i32, i8, i16, [0 x %struct.NullableDatum] }
%struct.NullableDatum = type { i64, i8 }

@.str.3 = private unnamed_addr constant [7 x i8] c"date.c\00", align 1
@.str.8 = private unnamed_addr constant [44 x i8] c"date field value out of range: %d-%02d-%02d\00", align 1
@__func__.make_date = private unnamed_addr constant [10 x i8] c"make_date\00", align 1
@.str.9 = private unnamed_addr constant [32 x i8] c"date out of range: %d-%02d-%02d\00", align 1

; Function Attrs: inlinehint nounwind uwtable
define internal i64 @Int32GetDatum(i32 noundef %0) #4 {
  %2 = alloca i32, align 4
  store i32 %0, ptr %2, align 4
  %3 = load i32, ptr %2, align 4
  %4 = sext i32 %3 to i64
  ret i64 %4
}

; Function Attrs: inlinehint nounwind uwtable
define internal i64 @DateADTGetDatum(i32 noundef %0) #4 {
  %2 = alloca i32, align 4
  store i32 %0, ptr %2, align 4
  %3 = load i32, ptr %2, align 4
  %4 = call i64 @Int32GetDatum(i32 noundef %3)
  ret i64 %4
}

; Function Attrs: inlinehint nounwind uwtable
define internal zeroext i1 @pg_neg_s32_overflow(i32 noundef %0, ptr noundef %1) #4 {
  %3 = alloca i32, align 4
  %4 = alloca ptr, align 8
  store i32 %0, ptr %3, align 4
  store ptr %1, ptr %4, align 8
  %5 = load i32, ptr %3, align 4
  %6 = load ptr, ptr %4, align 8
  %7 = call { i32, i1 } @llvm.ssub.with.overflow.i32(i32 0, i32 %5)
  %8 = extractvalue { i32, i1 } %7, 1
  %9 = extractvalue { i32, i1 } %7, 0
  store i32 %9, ptr %6, align 4
  ret i1 %8
}

; Function Attrs: inlinehint nounwind uwtable
define internal i32 @DatumGetInt32(i64 noundef %0) #4 {
  %2 = alloca i64, align 8
  store i64 %0, ptr %2, align 8
  %3 = load i64, ptr %2, align 8
  %4 = trunc i64 %3 to i32
  ret i32 %4
}

; Function Attrs: nounwind uwtable
define dso_local i64 @make_date(ptr noundef %0) #0 {
  %2 = alloca ptr, align 8
  %3 = alloca %struct.pg_tm, align 8
  %4 = alloca i32, align 4
  %5 = alloca i32, align 4
  %6 = alloca i8, align 1
  %7 = alloca i32, align 4
  store ptr %0, ptr %2, align 8
  call void @llvm.lifetime.start.p0(i64 56, ptr %3) #9
  call void @llvm.lifetime.start.p0(i64 4, ptr %4) #9
  call void @llvm.lifetime.start.p0(i64 4, ptr %5) #9
  call void @llvm.lifetime.start.p0(i64 1, ptr %6) #9
  store i8 0, ptr %6, align 1
  %8 = load ptr, ptr %2, align 8
  %9 = getelementptr inbounds nuw %struct.FunctionCallInfoBaseData, ptr %8, i32 0, i32 6
  %10 = getelementptr inbounds [0 x %struct.NullableDatum], ptr %9, i64 0, i64 0
  %11 = getelementptr inbounds nuw %struct.NullableDatum, ptr %10, i32 0, i32 0
  %12 = load i64, ptr %11, align 8
  %13 = call i32 @DatumGetInt32(i64 noundef %12)
  %14 = getelementptr inbounds nuw %struct.pg_tm, ptr %3, i32 0, i32 5
  store i32 %13, ptr %14, align 4
  %15 = load ptr, ptr %2, align 8
  %16 = getelementptr inbounds nuw %struct.FunctionCallInfoBaseData, ptr %15, i32 0, i32 6
  %17 = getelementptr inbounds [0 x %struct.NullableDatum], ptr %16, i64 0, i64 1
  %18 = getelementptr inbounds nuw %struct.NullableDatum, ptr %17, i32 0, i32 0
  %19 = load i64, ptr %18, align 8
  %20 = call i32 @DatumGetInt32(i64 noundef %19)
  %21 = getelementptr inbounds nuw %struct.pg_tm, ptr %3, i32 0, i32 4
  store i32 %20, ptr %21, align 8
  %22 = load ptr, ptr %2, align 8
  %23 = getelementptr inbounds nuw %struct.FunctionCallInfoBaseData, ptr %22, i32 0, i32 6
  %24 = getelementptr inbounds [0 x %struct.NullableDatum], ptr %23, i64 0, i64 2
  %25 = getelementptr inbounds nuw %struct.NullableDatum, ptr %24, i32 0, i32 0
  %26 = load i64, ptr %25, align 8
  %27 = call i32 @DatumGetInt32(i64 noundef %26)
  %28 = getelementptr inbounds nuw %struct.pg_tm, ptr %3, i32 0, i32 3
  store i32 %27, ptr %28, align 4
  %29 = getelementptr inbounds nuw %struct.pg_tm, ptr %3, i32 0, i32 5
  %30 = load i32, ptr %29, align 4
  %31 = icmp slt i32 %30, 0
  br i1 %31, label %32, label %58

32:                                               ; preds = %1
  call void @llvm.lifetime.start.p0(i64 4, ptr %7) #9
  %33 = getelementptr inbounds nuw %struct.pg_tm, ptr %3, i32 0, i32 5
  %34 = load i32, ptr %33, align 4
  store i32 %34, ptr %7, align 4
  store i8 1, ptr %6, align 1
  %35 = load i32, ptr %7, align 4
  %36 = call zeroext i1 @pg_neg_s32_overflow(i32 noundef %35, ptr noundef %7)
  br i1 %36, label %37, label %55

37:                                               ; preds = %32
  br label %38

38:                                               ; preds = %37
  br i1 true, label %39, label %41

39:                                               ; preds = %38
  %40 = call zeroext i1 @errstart_cold(i32 noundef 21, ptr noundef null) #8
  br i1 %40, label %43, label %52

41:                                               ; preds = %38
  %42 = call zeroext i1 @errstart(i32 noundef 21, ptr noundef null)
  br i1 %42, label %43, label %52

43:                                               ; preds = %41, %39
  %44 = call i32 @errcode(i32 noundef 134217858)
  %45 = getelementptr inbounds nuw %struct.pg_tm, ptr %3, i32 0, i32 5
  %46 = load i32, ptr %45, align 4
  %47 = getelementptr inbounds nuw %struct.pg_tm, ptr %3, i32 0, i32 4
  %48 = load i32, ptr %47, align 8
  %49 = getelementptr inbounds nuw %struct.pg_tm, ptr %3, i32 0, i32 3
  %50 = load i32, ptr %49, align 4
  %51 = call i32 (ptr, ...) @errmsg(ptr noundef @.str.8, i32 noundef %46, i32 noundef %48, i32 noundef %50)
  call void @errfinish(ptr noundef @.str.3, i32 noundef 266, ptr noundef @__func__.make_date)
  br label %52

52:                                               ; preds = %43, %41, %39
  unreachable

53:                                               ; No predecessors!
  br label %54

54:                                               ; preds = %53
  br label %55

55:                                               ; preds = %54, %32
  %56 = load i32, ptr %7, align 4
  %57 = getelementptr inbounds nuw %struct.pg_tm, ptr %3, i32 0, i32 5
  store i32 %56, ptr %57, align 4
  call void @llvm.lifetime.end.p0(i64 4, ptr %7) #9
  br label %58

58:                                               ; preds = %55, %1
  %59 = load i8, ptr %6, align 1, !range !4, !noundef !5
  %60 = trunc i8 %59 to i1
  %61 = call i32 @ValidateDate(i32 noundef 14, i1 noundef zeroext false, i1 noundef zeroext false, i1 noundef zeroext %60, ptr noundef %3)
  store i32 %61, ptr %5, align 4
  %62 = load i32, ptr %5, align 4
  %63 = icmp ne i32 %62, 0
  br i1 %63, label %64, label %82

64:                                               ; preds = %58
  br label %65

65:                                               ; preds = %64
  br i1 true, label %66, label %68

66:                                               ; preds = %65
  %67 = call zeroext i1 @errstart_cold(i32 noundef 21, ptr noundef null) #8
  br i1 %67, label %70, label %79

68:                                               ; preds = %65
  %69 = call zeroext i1 @errstart(i32 noundef 21, ptr noundef null)
  br i1 %69, label %70, label %79

70:                                               ; preds = %68, %66
  %71 = call i32 @errcode(i32 noundef 134217858)
  %72 = getelementptr inbounds nuw %struct.pg_tm, ptr %3, i32 0, i32 5
  %73 = load i32, ptr %72, align 4
  %74 = getelementptr inbounds nuw %struct.pg_tm, ptr %3, i32 0, i32 4
  %75 = load i32, ptr %74, align 8
  %76 = getelementptr inbounds nuw %struct.pg_tm, ptr %3, i32 0, i32 3
  %77 = load i32, ptr %76, align 4
  %78 = call i32 (ptr, ...) @errmsg(ptr noundef @.str.8, i32 noundef %73, i32 noundef %75, i32 noundef %77)
  call void @errfinish(ptr noundef @.str.3, i32 noundef 276, ptr noundef @__func__.make_date)
  br label %79

79:                                               ; preds = %70, %68, %66
  unreachable

80:                                               ; No predecessors!
  br label %81

81:                                               ; preds = %80
  br label %82

82:                                               ; preds = %81, %58
  %83 = getelementptr inbounds nuw %struct.pg_tm, ptr %3, i32 0, i32 5
  %84 = load i32, ptr %83, align 4
  %85 = icmp sgt i32 %84, -4713
  br i1 %85, label %94, label %86

86:                                               ; preds = %82
  %87 = getelementptr inbounds nuw %struct.pg_tm, ptr %3, i32 0, i32 5
  %88 = load i32, ptr %87, align 4
  %89 = icmp eq i32 %88, -4713
  br i1 %89, label %90, label %106

90:                                               ; preds = %86
  %91 = getelementptr inbounds nuw %struct.pg_tm, ptr %3, i32 0, i32 4
  %92 = load i32, ptr %91, align 8
  %93 = icmp sge i32 %92, 11
  br i1 %93, label %94, label %106

94:                                               ; preds = %90, %82
  %95 = getelementptr inbounds nuw %struct.pg_tm, ptr %3, i32 0, i32 5
  %96 = load i32, ptr %95, align 4
  %97 = icmp slt i32 %96, 5874898
  br i1 %97, label %124, label %98

98:                                               ; preds = %94
  %99 = getelementptr inbounds nuw %struct.pg_tm, ptr %3, i32 0, i32 5
  %100 = load i32, ptr %99, align 4
  %101 = icmp eq i32 %100, 5874898
  br i1 %101, label %102, label %106

102:                                              ; preds = %98
  %103 = getelementptr inbounds nuw %struct.pg_tm, ptr %3, i32 0, i32 4
  %104 = load i32, ptr %103, align 8
  %105 = icmp slt i32 %104, 6
  br i1 %105, label %124, label %106

106:                                              ; preds = %102, %98, %90, %86
  br label %107

107:                                              ; preds = %106
  br i1 true, label %108, label %110

108:                                              ; preds = %107
  %109 = call zeroext i1 @errstart_cold(i32 noundef 21, ptr noundef null) #8
  br i1 %109, label %112, label %121

110:                                              ; preds = %107
  %111 = call zeroext i1 @errstart(i32 noundef 21, ptr noundef null)
  br i1 %111, label %112, label %121

112:                                              ; preds = %110, %108
  %113 = call i32 @errcode(i32 noundef 134217858)
  %114 = getelementptr inbounds nuw %struct.pg_tm, ptr %3, i32 0, i32 5
  %115 = load i32, ptr %114, align 4
  %116 = getelementptr inbounds nuw %struct.pg_tm, ptr %3, i32 0, i32 4
  %117 = load i32, ptr %116, align 8
  %118 = getelementptr inbounds nuw %struct.pg_tm, ptr %3, i32 0, i32 3
  %119 = load i32, ptr %118, align 4
  %120 = call i32 (ptr, ...) @errmsg(ptr noundef @.str.9, i32 noundef %115, i32 noundef %117, i32 noundef %119)
  call void @errfinish(ptr noundef @.str.3, i32 noundef 283, ptr noundef @__func__.make_date)
  br label %121

121:                                              ; preds = %112, %110, %108
  unreachable

122:                                              ; No predecessors!
  br label %123

123:                                              ; preds = %122
  br label %124

124:                                              ; preds = %123, %102, %94
  %125 = getelementptr inbounds nuw %struct.pg_tm, ptr %3, i32 0, i32 5
  %126 = load i32, ptr %125, align 4
  %127 = getelementptr inbounds nuw %struct.pg_tm, ptr %3, i32 0, i32 4
  %128 = load i32, ptr %127, align 8
  %129 = getelementptr inbounds nuw %struct.pg_tm, ptr %3, i32 0, i32 3
  %130 = load i32, ptr %129, align 4
  %131 = call i32 @date2j(i32 noundef %126, i32 noundef %128, i32 noundef %130)
  %132 = sub i32 %131, 2451545
  store i32 %132, ptr %4, align 4
  %133 = load i32, ptr %4, align 4
  %134 = icmp sle i32 -2451545, %133
  br i1 %134, label %135, label %138

135:                                              ; preds = %124
  %136 = load i32, ptr %4, align 4
  %137 = icmp slt i32 %136, 2145031949
  br i1 %137, label %156, label %138

138:                                              ; preds = %135, %124
  br label %139

139:                                              ; preds = %138
  br i1 true, label %140, label %142

140:                                              ; preds = %139
  %141 = call zeroext i1 @errstart_cold(i32 noundef 21, ptr noundef null) #8
  br i1 %141, label %144, label %153

142:                                              ; preds = %139
  %143 = call zeroext i1 @errstart(i32 noundef 21, ptr noundef null)
  br i1 %143, label %144, label %153

144:                                              ; preds = %142, %140
  %145 = call i32 @errcode(i32 noundef 134217858)
  %146 = getelementptr inbounds nuw %struct.pg_tm, ptr %3, i32 0, i32 5
  %147 = load i32, ptr %146, align 4
  %148 = getelementptr inbounds nuw %struct.pg_tm, ptr %3, i32 0, i32 4
  %149 = load i32, ptr %148, align 8
  %150 = getelementptr inbounds nuw %struct.pg_tm, ptr %3, i32 0, i32 3
  %151 = load i32, ptr %150, align 4
  %152 = call i32 (ptr, ...) @errmsg(ptr noundef @.str.9, i32 noundef %147, i32 noundef %149, i32 noundef %151)
  call void @errfinish(ptr noundef @.str.3, i32 noundef 292, ptr noundef @__func__.make_date)
  br label %153

153:                                              ; preds = %144, %142, %140
  unreachable

154:                                              ; No predecessors!
  br label %155

155:                                              ; preds = %154
  br label %156

156:                                              ; preds = %155, %135
  %157 = load i32, ptr %4, align 4
  %158 = call i64 @DateADTGetDatum(i32 noundef %157)
  call void @llvm.lifetime.end.p0(i64 1, ptr %6) #9
  call void @llvm.lifetime.end.p0(i64 4, ptr %5) #9
  call void @llvm.lifetime.end.p0(i64 4, ptr %4) #9
  call void @llvm.lifetime.end.p0(i64 56, ptr %3) #9
  ret i64 %158
}