; Function Attrs: nounwind uwtable
define dso_local range(i64 -2451545, 2145031949) i64 @make_date(ptr noundef readonly captures(none) %0) local_unnamed_addr #0 {
  %2 = alloca %struct.pg_tm, align 8
  call void @llvm.lifetime.start.p0(i64 56, ptr nonnull %2) #16
  %3 = getelementptr inbounds nuw i8, ptr %0, i64 32
  %4 = load i64, ptr %3, align 8
  %5 = trunc i64 %4 to i32
  %6 = getelementptr inbounds nuw i8, ptr %2, i64 20
  store i32 %5, ptr %6, align 4
  %7 = getelementptr inbounds nuw i8, ptr %0, i64 48
  %8 = load i64, ptr %7, align 8
  %9 = trunc i64 %8 to i32
  %10 = getelementptr inbounds nuw i8, ptr %2, i64 16
  store i32 %9, ptr %10, align 8
  %11 = getelementptr inbounds nuw i8, ptr %0, i64 64
  %12 = load i64, ptr %11, align 8
  %13 = trunc i64 %12 to i32
  %14 = getelementptr inbounds nuw i8, ptr %2, i64 12
  store i32 %13, ptr %14, align 4
  %15 = icmp slt i32 %5, 0
  br i1 %15, label %16, label %25

16:                                               ; preds = %1
  %17 = tail call { i32, i1 } @llvm.ssub.with.overflow.i32(i32 0, i32 %5)
  %18 = extractvalue { i32, i1 } %17, 1
  br i1 %18, label %19, label %23

19:                                               ; preds = %16
  %20 = tail call zeroext i1 @errstart_cold(i32 noundef 21, ptr noundef null) #15
  tail call void @llvm.assume(i1 %20)
  %21 = tail call i32 @errcode(i32 noundef 134217858) #16
  %22 = tail call i32 (ptr, ...) @errmsg(ptr noundef nonnull @.str.8, i32 noundef %5, i32 noundef %9, i32 noundef %13) #16
  tail call void @errfinish(ptr noundef nonnull @.str.3, i32 noundef 266, ptr noundef nonnull @__func__.make_date) #16
  unreachable

23:                                               ; preds = %16
  %24 = extractvalue { i32, i1 } %17, 0
  store i32 %24, ptr %6, align 4
  br label %25

25:                                               ; preds = %23, %1
  %26 = call i32 @ValidateDate(i32 noundef 14, i1 noundef zeroext false, i1 noundef zeroext false, i1 noundef zeroext %15, ptr noundef nonnull %2) #16
  %.not = icmp eq i32 %26, 0
  br i1 %.not, label %34, label %27

27:                                               ; preds = %25
  %28 = call zeroext i1 @errstart_cold(i32 noundef 21, ptr noundef null) #15
  call void @llvm.assume(i1 %28)
  %29 = call i32 @errcode(i32 noundef 134217858) #16
  %30 = load i32, ptr %6, align 4
  %31 = load i32, ptr %10, align 8
  %32 = load i32, ptr %14, align 4
  %33 = call i32 (ptr, ...) @errmsg(ptr noundef nonnull @.str.8, i32 noundef %30, i32 noundef %31, i32 noundef %32) #16
  call void @errfinish(ptr noundef nonnull @.str.3, i32 noundef 276, ptr noundef nonnull @__func__.make_date) #16
  unreachable

34:                                               ; preds = %25
  %35 = load i32, ptr %6, align 4
  %36 = icmp sgt i32 %35, -4713
  %.pre = load i32, ptr %10, align 8
  br i1 %36, label %40, label %37

37:                                               ; preds = %34
  %38 = icmp eq i32 %35, -4713
  %39 = icmp sgt i32 %.pre, 10
  %or.cond = select i1 %38, i1 %39, i1 false
  br i1 %or.cond, label %.thread, label %45

40:                                               ; preds = %34
  %41 = icmp slt i32 %35, 5874898
  br i1 %41, label %.thread, label %42

42:                                               ; preds = %40
  %43 = icmp eq i32 %35, 5874898
  %44 = icmp slt i32 %.pre, 6
  %or.cond5 = select i1 %43, i1 %44, i1 false
  br i1 %or.cond5, label %.thread, label %45

45:                                               ; preds = %42, %37
  %46 = call zeroext i1 @errstart_cold(i32 noundef 21, ptr noundef null) #15
  call void @llvm.assume(i1 %46)
  %47 = call i32 @errcode(i32 noundef 134217858) #16
  %48 = load i32, ptr %6, align 4
  %49 = load i32, ptr %10, align 8
  %50 = load i32, ptr %14, align 4
  %51 = call i32 (ptr, ...) @errmsg(ptr noundef nonnull @.str.9, i32 noundef %48, i32 noundef %49, i32 noundef %50) #16
  call void @errfinish(ptr noundef nonnull @.str.3, i32 noundef 283, ptr noundef nonnull @__func__.make_date) #16
  unreachable

.thread:                                          ; preds = %37, %42, %40
  %52 = load i32, ptr %14, align 4
  %53 = call i32 @date2j(i32 noundef %35, i32 noundef %.pre, i32 noundef %52) #16
  %or.cond7 = icmp ult i32 %53, 2147483494
  br i1 %or.cond7, label %61, label %54

54:                                               ; preds = %.thread
  %55 = call zeroext i1 @errstart_cold(i32 noundef 21, ptr noundef null) #15
  call void @llvm.assume(i1 %55)
  %56 = call i32 @errcode(i32 noundef 134217858) #16
  %57 = load i32, ptr %6, align 4
  %58 = load i32, ptr %10, align 8
  %59 = load i32, ptr %14, align 4
  %60 = call i32 (ptr, ...) @errmsg(ptr noundef nonnull @.str.9, i32 noundef %57, i32 noundef %58, i32 noundef %59) #16
  call void @errfinish(ptr noundef nonnull @.str.3, i32 noundef 292, ptr noundef nonnull @__func__.make_date) #16
  unreachable

61:                                               ; preds = %.thread
  %62 = add nsw i32 %53, -2451545
  %63 = sext i32 %62 to i64
  call void @llvm.lifetime.end.p0(i64 56, ptr nonnull %2) #16
  ret i64 %63
}